; Function Attrs: uwtable
define void @_ZTv0_n56_NK5arrow2io20SlowRandomAccessFile4TellEv(ptr dead_on_unwind noalias writable sret(%"class.arrow::Result") align 8 %0, ptr noundef readonly captures(none) %1) unnamed_addr #11 align 2 {
  %3 = load ptr, ptr %1, align 8, !tbaa !3
  %4 = getelementptr inbounds i8, ptr %3, i64 -56
  %5 = load i64, ptr %4, align 8
  %6 = getelementptr inbounds i8, ptr %1, i64 %5
  %7 = getelementptr inbounds nuw i8, ptr %6, i64 24
  %8 = load ptr, ptr %7, align 8, !tbaa !61, !noalias !73
  %9 = load ptr, ptr %8, align 8, !tbaa !3, !noalias !73
  %10 = getelementptr i8, ptr %9, i64 -56
  %11 = load i64, ptr %10, align 8, !noalias !73
  %12 = getelementptr inbounds i8, ptr %8, i64 %11
  %13 = load ptr, ptr %12, align 8, !tbaa !3, !noalias !73
  %14 = getelementptr inbounds nuw i8, ptr %13, i64 40
  %15 = load ptr, ptr %14, align 8, !noalias !73
  tail call void %15(ptr dead_on_unwind writable sret(%"class.arrow::Result") align 8 %0, ptr noundef nonnull align 8 dereferenceable(28) %12)
  ret void
}